target datalayout = "e-m:e-p270:32:32-p271:32:32-p272:64:64-i64:64-i128:128-f80:128-n8:16:32:64-S128"
target triple = "x86_64-pc-linux-gnu"

%struct.txt_db_st = type { i32, ptr, ptr, ptr, i64, i64, i64, ptr }

; Function Attrs: inlinehint nounwind uwtable
define internal ptr @ossl_check_const_OPENSSL_STRING_lh_plain_type(ptr noundef %0) #3 {
  %2 = alloca ptr, align 8
  store ptr %0, ptr %2, align 8, !tbaa !33
  %3 = load ptr, ptr %2, align 8, !tbaa !33
  ret ptr %3
}

; Function Attrs: inlinehint nounwind uwtable
define internal ptr @ossl_check_OPENSSL_STRING_lh_type(ptr noundef %0) #3 {
  %2 = alloca ptr, align 8
  store ptr %0, ptr %2, align 8, !tbaa !23
  %3 = load ptr, ptr %2, align 8, !tbaa !23
  ret ptr %3
}

; Function Attrs: nounwind uwtable
define ptr @TXT_DB_get_by_index(ptr noundef %0, i32 noundef %1, ptr noundef %2) #0 {
  %4 = alloca ptr, align 8
  %5 = alloca ptr, align 8
  %6 = alloca i32, align 4
  %7 = alloca ptr, align 8
  %8 = alloca ptr, align 8
  %9 = alloca ptr, align 8
  %10 = alloca i32, align 4
  store ptr %0, ptr %5, align 8, !tbaa !10
  store i32 %1, ptr %6, align 4, !tbaa !8
  store ptr %2, ptr %7, align 8, !tbaa !33
  call void @llvm.lifetime.start.p0(i64 8, ptr %8) #5
  call void @llvm.lifetime.start.p0(i64 8, ptr %9) #5
  %11 = load i32, ptr %6, align 4, !tbaa !8
  %12 = load ptr, ptr %5, align 8, !tbaa !10
  %13 = getelementptr inbounds nuw %struct.txt_db_st, ptr %12, i32 0, i32 0
  %14 = load i32, ptr %13, align 8, !tbaa !14
  %15 = icmp sge i32 %11, %14
  br i1 %15, label %16, label %19

16:                                               ; preds = %3
  %17 = load ptr, ptr %5, align 8, !tbaa !10
  %18 = getelementptr inbounds nuw %struct.txt_db_st, ptr %17, i32 0, i32 4
  store i64 3, ptr %18, align 8, !tbaa !34
  store ptr null, ptr %4, align 8
  store i32 1, ptr %10, align 4
  br label %41

19:                                               ; preds = %3
  %20 = load ptr, ptr %5, align 8, !tbaa !10
  %21 = getelementptr inbounds nuw %struct.txt_db_st, ptr %20, i32 0, i32 2
  %22 = load ptr, ptr %21, align 8, !tbaa !20
  %23 = load i32, ptr %6, align 4, !tbaa !8
  %24 = sext i32 %23 to i64
  %25 = getelementptr inbounds ptr, ptr %22, i64 %24
  %26 = load ptr, ptr %25, align 8, !tbaa !23
  store ptr %26, ptr %9, align 8, !tbaa !23
  %27 = load ptr, ptr %9, align 8, !tbaa !23
  %28 = icmp eq ptr %27, null
  br i1 %28, label %29, label %32

29:                                               ; preds = %19
  %30 = load ptr, ptr %5, align 8, !tbaa !10
  %31 = getelementptr inbounds nuw %struct.txt_db_st, ptr %30, i32 0, i32 4
  store i64 4, ptr %31, align 8, !tbaa !34
  store ptr null, ptr %4, align 8
  store i32 1, ptr %10, align 4
  br label %41

32:                                               ; preds = %19
  %33 = load ptr, ptr %9, align 8, !tbaa !23
  %34 = call ptr @ossl_check_OPENSSL_STRING_lh_type(ptr noundef %33)
  %35 = load ptr, ptr %7, align 8, !tbaa !33
  %36 = call ptr @ossl_check_const_OPENSSL_STRING_lh_plain_type(ptr noundef %35)
  %37 = call ptr @OPENSSL_LH_retrieve(ptr noundef %34, ptr noundef %36)
  store ptr %37, ptr %8, align 8, !tbaa !33
  %38 = load ptr, ptr %5, align 8, !tbaa !10
  %39 = getelementptr inbounds nuw %struct.txt_db_st, ptr %38, i32 0, i32 4
  store i64 0, ptr %39, align 8, !tbaa !34
  %40 = load ptr, ptr %8, align 8, !tbaa !33
  store ptr %40, ptr %4, align 8
  store i32 1, ptr %10, align 4
  br label %41

41:                                               ; preds = %32, %29, %16
  call void @llvm.lifetime.end.p0(i64 8, ptr %9) #5
  call void @llvm.lifetime.end.p0(i64 8, ptr %8) #5
  %42 = load ptr, ptr %4, align 8
  ret ptr %42
}