; Function Attrs: nounwind uwtable
define ptr @TXT_DB_get_by_index(ptr noundef captures(none) initializes((32, 40)) %0, i32 noundef %1, ptr noundef %2) local_unnamed_addr #0 {
  %4 = load i32, ptr %0, align 8, !tbaa !3
  %.not = icmp slt i32 %1, %4
  br i1 %.not, label %5, label %14

5:                                                ; preds = %3
  %6 = getelementptr inbounds nuw i8, ptr %0, i64 16
  %7 = load ptr, ptr %6, align 8, !tbaa !14
  %8 = sext i32 %1 to i64
  %9 = getelementptr inbounds ptr, ptr %7, i64 %8
  %10 = load ptr, ptr %9, align 8, !tbaa !16
  %11 = icmp eq ptr %10, null
  br i1 %11, label %14, label %12

12:                                               ; preds = %5
  %13 = tail call ptr @OPENSSL_LH_retrieve(ptr noundef nonnull %10, ptr noundef %2) #5
  br label %14

14:                                               ; preds = %5, %3, %12
  %.sink = phi i64 [ 0, %12 ], [ 3, %3 ], [ 4, %5 ]
  %.0 = phi ptr [ %13, %12 ], [ null, %3 ], [ null, %5 ]
  %15 = getelementptr inbounds nuw i8, ptr %0, i64 32
  store i64 %.sink, ptr %15, align 8, !tbaa !26
  ret ptr %.0
}